ARM GAS  C:\Users\TRONG-~1\AppData\Local\Temp\ccetaCC4.s 			page 1


   1              		.cpu cortex-m4
   2              		.eabi_attribute 27, 1
   3              		.eabi_attribute 28, 1
   4              		.eabi_attribute 20, 1
   5              		.eabi_attribute 21, 1
   6              		.eabi_attribute 23, 3
   7              		.eabi_attribute 24, 1
   8              		.eabi_attribute 25, 1
   9              		.eabi_attribute 26, 1
  10              		.eabi_attribute 30, 1
  11              		.eabi_attribute 34, 1
  12              		.eabi_attribute 18, 4
  13              		.file	"stm32f4xx_hal_msp.c"
  14              		.text
  15              	.Ltext0:
  16              		.cfi_sections	.debug_frame
  17              		.section	.text.HAL_MspInit,"ax",%progbits
  18              		.align	1
  19              		.global	HAL_MspInit
  20              		.arch armv7e-m
  21              		.syntax unified
  22              		.thumb
  23              		.thumb_func
  24              		.fpu fpv4-sp-d16
  26              	HAL_MspInit:
  27              	.LFB130:
  28              		.file 1 "Core/Src/stm32f4xx_hal_msp.c"
   1:Core/Src/stm32f4xx_hal_msp.c **** /* USER CODE BEGIN Header */
   2:Core/Src/stm32f4xx_hal_msp.c **** /**
   3:Core/Src/stm32f4xx_hal_msp.c ****   ******************************************************************************
   4:Core/Src/stm32f4xx_hal_msp.c ****   * @file         stm32f4xx_hal_msp.c
   5:Core/Src/stm32f4xx_hal_msp.c ****   * @brief        This file provides code for the MSP Initialization
   6:Core/Src/stm32f4xx_hal_msp.c ****   *               and de-Initialization codes.
   7:Core/Src/stm32f4xx_hal_msp.c ****   ******************************************************************************
   8:Core/Src/stm32f4xx_hal_msp.c ****   * @attention
   9:Core/Src/stm32f4xx_hal_msp.c ****   *
  10:Core/Src/stm32f4xx_hal_msp.c ****   * <h2><center>&copy; Copyright (c) 2021 STMicroelectronics.
  11:Core/Src/stm32f4xx_hal_msp.c ****   * All rights reserved.</center></h2>
  12:Core/Src/stm32f4xx_hal_msp.c ****   *
  13:Core/Src/stm32f4xx_hal_msp.c ****   * This software component is licensed by ST under BSD 3-Clause license,
  14:Core/Src/stm32f4xx_hal_msp.c ****   * the "License"; You may not use this file except in compliance with the
  15:Core/Src/stm32f4xx_hal_msp.c ****   * License. You may obtain a copy of the License at:
  16:Core/Src/stm32f4xx_hal_msp.c ****   *                        opensource.org/licenses/BSD-3-Clause
  17:Core/Src/stm32f4xx_hal_msp.c ****   *
  18:Core/Src/stm32f4xx_hal_msp.c ****   ******************************************************************************
  19:Core/Src/stm32f4xx_hal_msp.c ****   */
  20:Core/Src/stm32f4xx_hal_msp.c **** /* USER CODE END Header */
  21:Core/Src/stm32f4xx_hal_msp.c **** 
  22:Core/Src/stm32f4xx_hal_msp.c **** /* Includes ------------------------------------------------------------------*/
  23:Core/Src/stm32f4xx_hal_msp.c **** #include "main.h"
  24:Core/Src/stm32f4xx_hal_msp.c **** /* USER CODE BEGIN Includes */
  25:Core/Src/stm32f4xx_hal_msp.c **** 
  26:Core/Src/stm32f4xx_hal_msp.c **** /* USER CODE END Includes */
  27:Core/Src/stm32f4xx_hal_msp.c **** 
  28:Core/Src/stm32f4xx_hal_msp.c **** /* Private typedef -----------------------------------------------------------*/
  29:Core/Src/stm32f4xx_hal_msp.c **** /* USER CODE BEGIN TD */
  30:Core/Src/stm32f4xx_hal_msp.c **** 
ARM GAS  C:\Users\TRONG-~1\AppData\Local\Temp\ccetaCC4.s 			page 2


  31:Core/Src/stm32f4xx_hal_msp.c **** /* USER CODE END TD */
  32:Core/Src/stm32f4xx_hal_msp.c **** 
  33:Core/Src/stm32f4xx_hal_msp.c **** /* Private define ------------------------------------------------------------*/
  34:Core/Src/stm32f4xx_hal_msp.c **** /* USER CODE BEGIN Define */
  35:Core/Src/stm32f4xx_hal_msp.c **** 
  36:Core/Src/stm32f4xx_hal_msp.c **** /* USER CODE END Define */
  37:Core/Src/stm32f4xx_hal_msp.c **** 
  38:Core/Src/stm32f4xx_hal_msp.c **** /* Private macro -------------------------------------------------------------*/
  39:Core/Src/stm32f4xx_hal_msp.c **** /* USER CODE BEGIN Macro */
  40:Core/Src/stm32f4xx_hal_msp.c **** 
  41:Core/Src/stm32f4xx_hal_msp.c **** /* USER CODE END Macro */
  42:Core/Src/stm32f4xx_hal_msp.c **** 
  43:Core/Src/stm32f4xx_hal_msp.c **** /* Private variables ---------------------------------------------------------*/
  44:Core/Src/stm32f4xx_hal_msp.c **** /* USER CODE BEGIN PV */
  45:Core/Src/stm32f4xx_hal_msp.c **** 
  46:Core/Src/stm32f4xx_hal_msp.c **** /* USER CODE END PV */
  47:Core/Src/stm32f4xx_hal_msp.c **** 
  48:Core/Src/stm32f4xx_hal_msp.c **** /* Private function prototypes -----------------------------------------------*/
  49:Core/Src/stm32f4xx_hal_msp.c **** /* USER CODE BEGIN PFP */
  50:Core/Src/stm32f4xx_hal_msp.c **** 
  51:Core/Src/stm32f4xx_hal_msp.c **** /* USER CODE END PFP */
  52:Core/Src/stm32f4xx_hal_msp.c **** 
  53:Core/Src/stm32f4xx_hal_msp.c **** /* External functions --------------------------------------------------------*/
  54:Core/Src/stm32f4xx_hal_msp.c **** /* USER CODE BEGIN ExternalFunctions */
  55:Core/Src/stm32f4xx_hal_msp.c **** 
  56:Core/Src/stm32f4xx_hal_msp.c **** /* USER CODE END ExternalFunctions */
  57:Core/Src/stm32f4xx_hal_msp.c **** 
  58:Core/Src/stm32f4xx_hal_msp.c **** /* USER CODE BEGIN 0 */
  59:Core/Src/stm32f4xx_hal_msp.c **** 
  60:Core/Src/stm32f4xx_hal_msp.c **** /* USER CODE END 0 */
  61:Core/Src/stm32f4xx_hal_msp.c **** /**
  62:Core/Src/stm32f4xx_hal_msp.c ****   * Initializes the Global MSP.
  63:Core/Src/stm32f4xx_hal_msp.c ****   */
  64:Core/Src/stm32f4xx_hal_msp.c **** void HAL_MspInit(void)
  65:Core/Src/stm32f4xx_hal_msp.c **** {
  29              		.loc 1 65 1 view -0
  30              		.cfi_startproc
  31              		@ args = 0, pretend = 0, frame = 8
  32              		@ frame_needed = 0, uses_anonymous_args = 0
  33              		@ link register save eliminated.
  34 0000 82B0     		sub	sp, sp, #8
  35              	.LCFI0:
  36              		.cfi_def_cfa_offset 8
  66:Core/Src/stm32f4xx_hal_msp.c ****   /* USER CODE BEGIN MspInit 0 */
  67:Core/Src/stm32f4xx_hal_msp.c **** 
  68:Core/Src/stm32f4xx_hal_msp.c ****   /* USER CODE END MspInit 0 */
  69:Core/Src/stm32f4xx_hal_msp.c **** 
  70:Core/Src/stm32f4xx_hal_msp.c ****   __HAL_RCC_SYSCFG_CLK_ENABLE();
  37              		.loc 1 70 3 view .LVU1
  38              	.LBB2:
  39              		.loc 1 70 3 view .LVU2
  40 0002 0021     		movs	r1, #0
  41 0004 0091     		str	r1, [sp]
  42              		.loc 1 70 3 view .LVU3
  43 0006 0B4B     		ldr	r3, .L3
  44 0008 5A6C     		ldr	r2, [r3, #68]
  45 000a 42F48042 		orr	r2, r2, #16384
ARM GAS  C:\Users\TRONG-~1\AppData\Local\Temp\ccetaCC4.s 			page 3


  46 000e 5A64     		str	r2, [r3, #68]
  47              		.loc 1 70 3 view .LVU4
  48 0010 5A6C     		ldr	r2, [r3, #68]
  49 0012 02F48042 		and	r2, r2, #16384
  50 0016 0092     		str	r2, [sp]
  51              		.loc 1 70 3 view .LVU5
  52 0018 009A     		ldr	r2, [sp]
  53              	.LBE2:
  54              		.loc 1 70 3 view .LVU6
  71:Core/Src/stm32f4xx_hal_msp.c ****   __HAL_RCC_PWR_CLK_ENABLE();
  55              		.loc 1 71 3 view .LVU7
  56              	.LBB3:
  57              		.loc 1 71 3 view .LVU8
  58 001a 0191     		str	r1, [sp, #4]
  59              		.loc 1 71 3 view .LVU9
  60 001c 1A6C     		ldr	r2, [r3, #64]
  61 001e 42F08052 		orr	r2, r2, #268435456
  62 0022 1A64     		str	r2, [r3, #64]
  63              		.loc 1 71 3 view .LVU10
  64 0024 1B6C     		ldr	r3, [r3, #64]
  65 0026 03F08053 		and	r3, r3, #268435456
  66 002a 0193     		str	r3, [sp, #4]
  67              		.loc 1 71 3 view .LVU11
  68 002c 019B     		ldr	r3, [sp, #4]
  69              	.LBE3:
  70              		.loc 1 71 3 view .LVU12
  72:Core/Src/stm32f4xx_hal_msp.c **** 
  73:Core/Src/stm32f4xx_hal_msp.c ****   /* System interrupt init*/
  74:Core/Src/stm32f4xx_hal_msp.c **** 
  75:Core/Src/stm32f4xx_hal_msp.c ****   /* USER CODE BEGIN MspInit 1 */
  76:Core/Src/stm32f4xx_hal_msp.c **** 
  77:Core/Src/stm32f4xx_hal_msp.c ****   /* USER CODE END MspInit 1 */
  78:Core/Src/stm32f4xx_hal_msp.c **** }
  71              		.loc 1 78 1 is_stmt 0 view .LVU13
  72 002e 02B0     		add	sp, sp, #8
  73              	.LCFI1:
  74              		.cfi_def_cfa_offset 0
  75              		@ sp needed
  76 0030 7047     		bx	lr
  77              	.L4:
  78 0032 00BF     		.align	2
  79              	.L3:
  80 0034 00380240 		.word	1073887232
  81              		.cfi_endproc
  82              	.LFE130:
  84              		.section	.text.HAL_TIM_Base_MspInit,"ax",%progbits
  85              		.align	1
  86              		.global	HAL_TIM_Base_MspInit
  87              		.syntax unified
  88              		.thumb
  89              		.thumb_func
  90              		.fpu fpv4-sp-d16
  92              	HAL_TIM_Base_MspInit:
  93              	.LVL0:
  94              	.LFB131:
  79:Core/Src/stm32f4xx_hal_msp.c **** 
  80:Core/Src/stm32f4xx_hal_msp.c **** /**
ARM GAS  C:\Users\TRONG-~1\AppData\Local\Temp\ccetaCC4.s 			page 4


  81:Core/Src/stm32f4xx_hal_msp.c **** * @brief TIM_Base MSP Initialization
  82:Core/Src/stm32f4xx_hal_msp.c **** * This function configures the hardware resources used in this example
  83:Core/Src/stm32f4xx_hal_msp.c **** * @param htim_base: TIM_Base handle pointer
  84:Core/Src/stm32f4xx_hal_msp.c **** * @retval None
  85:Core/Src/stm32f4xx_hal_msp.c **** */
  86:Core/Src/stm32f4xx_hal_msp.c **** void HAL_TIM_Base_MspInit(TIM_HandleTypeDef* htim_base)
  87:Core/Src/stm32f4xx_hal_msp.c **** {
  95              		.loc 1 87 1 is_stmt 1 view -0
  96              		.cfi_startproc
  97              		@ args = 0, pretend = 0, frame = 8
  98              		@ frame_needed = 0, uses_anonymous_args = 0
  88:Core/Src/stm32f4xx_hal_msp.c ****   if(htim_base->Instance==TIM2)
  99              		.loc 1 88 3 view .LVU15
 100              		.loc 1 88 15 is_stmt 0 view .LVU16
 101 0000 0368     		ldr	r3, [r0]
 102              		.loc 1 88 5 view .LVU17
 103 0002 B3F1804F 		cmp	r3, #1073741824
 104 0006 00D0     		beq	.L11
 105 0008 7047     		bx	lr
 106              	.L11:
  87:Core/Src/stm32f4xx_hal_msp.c ****   if(htim_base->Instance==TIM2)
 107              		.loc 1 87 1 view .LVU18
 108 000a 00B5     		push	{lr}
 109              	.LCFI2:
 110              		.cfi_def_cfa_offset 4
 111              		.cfi_offset 14, -4
 112 000c 83B0     		sub	sp, sp, #12
 113              	.LCFI3:
 114              		.cfi_def_cfa_offset 16
  89:Core/Src/stm32f4xx_hal_msp.c ****   {
  90:Core/Src/stm32f4xx_hal_msp.c ****   /* USER CODE BEGIN TIM2_MspInit 0 */
  91:Core/Src/stm32f4xx_hal_msp.c **** 
  92:Core/Src/stm32f4xx_hal_msp.c ****   /* USER CODE END TIM2_MspInit 0 */
  93:Core/Src/stm32f4xx_hal_msp.c ****     /* Peripheral clock enable */
  94:Core/Src/stm32f4xx_hal_msp.c ****     __HAL_RCC_TIM2_CLK_ENABLE();
 115              		.loc 1 94 5 is_stmt 1 view .LVU19
 116              	.LBB4:
 117              		.loc 1 94 5 view .LVU20
 118 000e 0021     		movs	r1, #0
 119 0010 0191     		str	r1, [sp, #4]
 120              		.loc 1 94 5 view .LVU21
 121 0012 03F50E33 		add	r3, r3, #145408
 122 0016 1A6C     		ldr	r2, [r3, #64]
 123 0018 42F00102 		orr	r2, r2, #1
 124 001c 1A64     		str	r2, [r3, #64]
 125              		.loc 1 94 5 view .LVU22
 126 001e 1B6C     		ldr	r3, [r3, #64]
 127 0020 03F00103 		and	r3, r3, #1
 128 0024 0193     		str	r3, [sp, #4]
 129              		.loc 1 94 5 view .LVU23
 130 0026 019B     		ldr	r3, [sp, #4]
 131              	.LBE4:
 132              		.loc 1 94 5 view .LVU24
  95:Core/Src/stm32f4xx_hal_msp.c ****     /* TIM2 interrupt Init */
  96:Core/Src/stm32f4xx_hal_msp.c ****     HAL_NVIC_SetPriority(TIM2_IRQn, 0, 0);
 133              		.loc 1 96 5 view .LVU25
 134 0028 0A46     		mov	r2, r1
ARM GAS  C:\Users\TRONG-~1\AppData\Local\Temp\ccetaCC4.s 			page 5


 135 002a 1C20     		movs	r0, #28
 136              	.LVL1:
 137              		.loc 1 96 5 is_stmt 0 view .LVU26
 138 002c FFF7FEFF 		bl	HAL_NVIC_SetPriority
 139              	.LVL2:
  97:Core/Src/stm32f4xx_hal_msp.c ****     HAL_NVIC_EnableIRQ(TIM2_IRQn);
 140              		.loc 1 97 5 is_stmt 1 view .LVU27
 141 0030 1C20     		movs	r0, #28
 142 0032 FFF7FEFF 		bl	HAL_NVIC_EnableIRQ
 143              	.LVL3:
  98:Core/Src/stm32f4xx_hal_msp.c ****   /* USER CODE BEGIN TIM2_MspInit 1 */
  99:Core/Src/stm32f4xx_hal_msp.c **** 
 100:Core/Src/stm32f4xx_hal_msp.c ****   /* USER CODE END TIM2_MspInit 1 */
 101:Core/Src/stm32f4xx_hal_msp.c ****   }
 102:Core/Src/stm32f4xx_hal_msp.c **** 
 103:Core/Src/stm32f4xx_hal_msp.c **** }
 144              		.loc 1 103 1 is_stmt 0 view .LVU28
 145 0036 03B0     		add	sp, sp, #12
 146              	.LCFI4:
 147              		.cfi_def_cfa_offset 4
 148              		@ sp needed
 149 0038 5DF804FB 		ldr	pc, [sp], #4
 150              		.cfi_endproc
 151              	.LFE131:
 153              		.section	.text.HAL_TIM_Base_MspDeInit,"ax",%progbits
 154              		.align	1
 155              		.global	HAL_TIM_Base_MspDeInit
 156              		.syntax unified
 157              		.thumb
 158              		.thumb_func
 159              		.fpu fpv4-sp-d16
 161              	HAL_TIM_Base_MspDeInit:
 162              	.LVL4:
 163              	.LFB132:
 104:Core/Src/stm32f4xx_hal_msp.c **** 
 105:Core/Src/stm32f4xx_hal_msp.c **** /**
 106:Core/Src/stm32f4xx_hal_msp.c **** * @brief TIM_Base MSP De-Initialization
 107:Core/Src/stm32f4xx_hal_msp.c **** * This function freeze the hardware resources used in this example
 108:Core/Src/stm32f4xx_hal_msp.c **** * @param htim_base: TIM_Base handle pointer
 109:Core/Src/stm32f4xx_hal_msp.c **** * @retval None
 110:Core/Src/stm32f4xx_hal_msp.c **** */
 111:Core/Src/stm32f4xx_hal_msp.c **** void HAL_TIM_Base_MspDeInit(TIM_HandleTypeDef* htim_base)
 112:Core/Src/stm32f4xx_hal_msp.c **** {
 164              		.loc 1 112 1 is_stmt 1 view -0
 165              		.cfi_startproc
 166              		@ args = 0, pretend = 0, frame = 0
 167              		@ frame_needed = 0, uses_anonymous_args = 0
 168              		.loc 1 112 1 is_stmt 0 view .LVU30
 169 0000 08B5     		push	{r3, lr}
 170              	.LCFI5:
 171              		.cfi_def_cfa_offset 8
 172              		.cfi_offset 3, -8
 173              		.cfi_offset 14, -4
 113:Core/Src/stm32f4xx_hal_msp.c ****   if(htim_base->Instance==TIM2)
 174              		.loc 1 113 3 is_stmt 1 view .LVU31
 175              		.loc 1 113 15 is_stmt 0 view .LVU32
 176 0002 0368     		ldr	r3, [r0]
ARM GAS  C:\Users\TRONG-~1\AppData\Local\Temp\ccetaCC4.s 			page 6


 177              		.loc 1 113 5 view .LVU33
 178 0004 B3F1804F 		cmp	r3, #1073741824
 179 0008 00D0     		beq	.L15
 180              	.LVL5:
 181              	.L12:
 114:Core/Src/stm32f4xx_hal_msp.c ****   {
 115:Core/Src/stm32f4xx_hal_msp.c ****   /* USER CODE BEGIN TIM2_MspDeInit 0 */
 116:Core/Src/stm32f4xx_hal_msp.c **** 
 117:Core/Src/stm32f4xx_hal_msp.c ****   /* USER CODE END TIM2_MspDeInit 0 */
 118:Core/Src/stm32f4xx_hal_msp.c ****     /* Peripheral clock disable */
 119:Core/Src/stm32f4xx_hal_msp.c ****     __HAL_RCC_TIM2_CLK_DISABLE();
 120:Core/Src/stm32f4xx_hal_msp.c **** 
 121:Core/Src/stm32f4xx_hal_msp.c ****     /* TIM2 interrupt DeInit */
 122:Core/Src/stm32f4xx_hal_msp.c ****     HAL_NVIC_DisableIRQ(TIM2_IRQn);
 123:Core/Src/stm32f4xx_hal_msp.c ****   /* USER CODE BEGIN TIM2_MspDeInit 1 */
 124:Core/Src/stm32f4xx_hal_msp.c **** 
 125:Core/Src/stm32f4xx_hal_msp.c ****   /* USER CODE END TIM2_MspDeInit 1 */
 126:Core/Src/stm32f4xx_hal_msp.c ****   }
 127:Core/Src/stm32f4xx_hal_msp.c **** 
 128:Core/Src/stm32f4xx_hal_msp.c **** }
 182              		.loc 1 128 1 view .LVU34
 183 000a 08BD     		pop	{r3, pc}
 184              	.LVL6:
 185              	.L15:
 119:Core/Src/stm32f4xx_hal_msp.c **** 
 186              		.loc 1 119 5 is_stmt 1 view .LVU35
 187 000c 044A     		ldr	r2, .L16
 188 000e 136C     		ldr	r3, [r2, #64]
 189 0010 23F00103 		bic	r3, r3, #1
 190 0014 1364     		str	r3, [r2, #64]
 122:Core/Src/stm32f4xx_hal_msp.c ****   /* USER CODE BEGIN TIM2_MspDeInit 1 */
 191              		.loc 1 122 5 view .LVU36
 192 0016 1C20     		movs	r0, #28
 193              	.LVL7:
 122:Core/Src/stm32f4xx_hal_msp.c ****   /* USER CODE BEGIN TIM2_MspDeInit 1 */
 194              		.loc 1 122 5 is_stmt 0 view .LVU37
 195 0018 FFF7FEFF 		bl	HAL_NVIC_DisableIRQ
 196              	.LVL8:
 197              		.loc 1 128 1 view .LVU38
 198 001c F5E7     		b	.L12
 199              	.L17:
 200 001e 00BF     		.align	2
 201              	.L16:
 202 0020 00380240 		.word	1073887232
 203              		.cfi_endproc
 204              	.LFE132:
 206              		.section	.text.HAL_UART_MspInit,"ax",%progbits
 207              		.align	1
 208              		.global	HAL_UART_MspInit
 209              		.syntax unified
 210              		.thumb
 211              		.thumb_func
 212              		.fpu fpv4-sp-d16
 214              	HAL_UART_MspInit:
 215              	.LVL9:
 216              	.LFB133:
 129:Core/Src/stm32f4xx_hal_msp.c **** 
ARM GAS  C:\Users\TRONG-~1\AppData\Local\Temp\ccetaCC4.s 			page 7


 130:Core/Src/stm32f4xx_hal_msp.c **** /**
 131:Core/Src/stm32f4xx_hal_msp.c **** * @brief UART MSP Initialization
 132:Core/Src/stm32f4xx_hal_msp.c **** * This function configures the hardware resources used in this example
 133:Core/Src/stm32f4xx_hal_msp.c **** * @param huart: UART handle pointer
 134:Core/Src/stm32f4xx_hal_msp.c **** * @retval None
 135:Core/Src/stm32f4xx_hal_msp.c **** */
 136:Core/Src/stm32f4xx_hal_msp.c **** void HAL_UART_MspInit(UART_HandleTypeDef* huart)
 137:Core/Src/stm32f4xx_hal_msp.c **** {
 217              		.loc 1 137 1 is_stmt 1 view -0
 218              		.cfi_startproc
 219              		@ args = 0, pretend = 0, frame = 32
 220              		@ frame_needed = 0, uses_anonymous_args = 0
 221              		.loc 1 137 1 is_stmt 0 view .LVU40
 222 0000 00B5     		push	{lr}
 223              	.LCFI6:
 224              		.cfi_def_cfa_offset 4
 225              		.cfi_offset 14, -4
 226 0002 89B0     		sub	sp, sp, #36
 227              	.LCFI7:
 228              		.cfi_def_cfa_offset 40
 138:Core/Src/stm32f4xx_hal_msp.c ****   GPIO_InitTypeDef GPIO_InitStruct = {0};
 229              		.loc 1 138 3 is_stmt 1 view .LVU41
 230              		.loc 1 138 20 is_stmt 0 view .LVU42
 231 0004 0023     		movs	r3, #0
 232 0006 0393     		str	r3, [sp, #12]
 233 0008 0493     		str	r3, [sp, #16]
 234 000a 0593     		str	r3, [sp, #20]
 235 000c 0693     		str	r3, [sp, #24]
 236 000e 0793     		str	r3, [sp, #28]
 139:Core/Src/stm32f4xx_hal_msp.c ****   if(huart->Instance==USART1)
 237              		.loc 1 139 3 is_stmt 1 view .LVU43
 238              		.loc 1 139 11 is_stmt 0 view .LVU44
 239 0010 0268     		ldr	r2, [r0]
 240              		.loc 1 139 5 view .LVU45
 241 0012 03F18043 		add	r3, r3, #1073741824
 242 0016 03F58833 		add	r3, r3, #69632
 243 001a 9A42     		cmp	r2, r3
 244 001c 02D0     		beq	.L21
 245              	.LVL10:
 246              	.L18:
 140:Core/Src/stm32f4xx_hal_msp.c ****   {
 141:Core/Src/stm32f4xx_hal_msp.c ****   /* USER CODE BEGIN USART1_MspInit 0 */
 142:Core/Src/stm32f4xx_hal_msp.c **** 
 143:Core/Src/stm32f4xx_hal_msp.c ****   /* USER CODE END USART1_MspInit 0 */
 144:Core/Src/stm32f4xx_hal_msp.c ****     /* Peripheral clock enable */
 145:Core/Src/stm32f4xx_hal_msp.c ****     __HAL_RCC_USART1_CLK_ENABLE();
 146:Core/Src/stm32f4xx_hal_msp.c **** 
 147:Core/Src/stm32f4xx_hal_msp.c ****     __HAL_RCC_GPIOA_CLK_ENABLE();
 148:Core/Src/stm32f4xx_hal_msp.c ****     /**USART1 GPIO Configuration
 149:Core/Src/stm32f4xx_hal_msp.c ****     PA9     ------> USART1_TX
 150:Core/Src/stm32f4xx_hal_msp.c ****     PA10     ------> USART1_RX
 151:Core/Src/stm32f4xx_hal_msp.c ****     */
 152:Core/Src/stm32f4xx_hal_msp.c ****     GPIO_InitStruct.Pin = GPIO_PIN_9|GPIO_PIN_10;
 153:Core/Src/stm32f4xx_hal_msp.c ****     GPIO_InitStruct.Mode = GPIO_MODE_AF_PP;
 154:Core/Src/stm32f4xx_hal_msp.c ****     GPIO_InitStruct.Pull = GPIO_NOPULL;
 155:Core/Src/stm32f4xx_hal_msp.c ****     GPIO_InitStruct.Speed = GPIO_SPEED_FREQ_VERY_HIGH;
 156:Core/Src/stm32f4xx_hal_msp.c ****     GPIO_InitStruct.Alternate = GPIO_AF7_USART1;
ARM GAS  C:\Users\TRONG-~1\AppData\Local\Temp\ccetaCC4.s 			page 8


 157:Core/Src/stm32f4xx_hal_msp.c ****     HAL_GPIO_Init(GPIOA, &GPIO_InitStruct);
 158:Core/Src/stm32f4xx_hal_msp.c **** 
 159:Core/Src/stm32f4xx_hal_msp.c ****   /* USER CODE BEGIN USART1_MspInit 1 */
 160:Core/Src/stm32f4xx_hal_msp.c **** 
 161:Core/Src/stm32f4xx_hal_msp.c ****   /* USER CODE END USART1_MspInit 1 */
 162:Core/Src/stm32f4xx_hal_msp.c ****   }
 163:Core/Src/stm32f4xx_hal_msp.c **** 
 164:Core/Src/stm32f4xx_hal_msp.c **** }
 247              		.loc 1 164 1 view .LVU46
 248 001e 09B0     		add	sp, sp, #36
 249              	.LCFI8:
 250              		.cfi_remember_state
 251              		.cfi_def_cfa_offset 4
 252              		@ sp needed
 253 0020 5DF804FB 		ldr	pc, [sp], #4
 254              	.LVL11:
 255              	.L21:
 256              	.LCFI9:
 257              		.cfi_restore_state
 145:Core/Src/stm32f4xx_hal_msp.c **** 
 258              		.loc 1 145 5 is_stmt 1 view .LVU47
 259              	.LBB5:
 145:Core/Src/stm32f4xx_hal_msp.c **** 
 260              		.loc 1 145 5 view .LVU48
 261 0024 0021     		movs	r1, #0
 262 0026 0191     		str	r1, [sp, #4]
 145:Core/Src/stm32f4xx_hal_msp.c **** 
 263              		.loc 1 145 5 view .LVU49
 264 0028 03F59433 		add	r3, r3, #75776
 265 002c 5A6C     		ldr	r2, [r3, #68]
 266 002e 42F01002 		orr	r2, r2, #16
 267 0032 5A64     		str	r2, [r3, #68]
 145:Core/Src/stm32f4xx_hal_msp.c **** 
 268              		.loc 1 145 5 view .LVU50
 269 0034 5A6C     		ldr	r2, [r3, #68]
 270 0036 02F01002 		and	r2, r2, #16
 271 003a 0192     		str	r2, [sp, #4]
 145:Core/Src/stm32f4xx_hal_msp.c **** 
 272              		.loc 1 145 5 view .LVU51
 273 003c 019A     		ldr	r2, [sp, #4]
 274              	.LBE5:
 145:Core/Src/stm32f4xx_hal_msp.c **** 
 275              		.loc 1 145 5 view .LVU52
 147:Core/Src/stm32f4xx_hal_msp.c ****     /**USART1 GPIO Configuration
 276              		.loc 1 147 5 view .LVU53
 277              	.LBB6:
 147:Core/Src/stm32f4xx_hal_msp.c ****     /**USART1 GPIO Configuration
 278              		.loc 1 147 5 view .LVU54
 279 003e 0291     		str	r1, [sp, #8]
 147:Core/Src/stm32f4xx_hal_msp.c ****     /**USART1 GPIO Configuration
 280              		.loc 1 147 5 view .LVU55
 281 0040 1A6B     		ldr	r2, [r3, #48]
 282 0042 42F00102 		orr	r2, r2, #1
 283 0046 1A63     		str	r2, [r3, #48]
 147:Core/Src/stm32f4xx_hal_msp.c ****     /**USART1 GPIO Configuration
 284              		.loc 1 147 5 view .LVU56
 285 0048 1B6B     		ldr	r3, [r3, #48]
ARM GAS  C:\Users\TRONG-~1\AppData\Local\Temp\ccetaCC4.s 			page 9


 286 004a 03F00103 		and	r3, r3, #1
 287 004e 0293     		str	r3, [sp, #8]
 147:Core/Src/stm32f4xx_hal_msp.c ****     /**USART1 GPIO Configuration
 288              		.loc 1 147 5 view .LVU57
 289 0050 029B     		ldr	r3, [sp, #8]
 290              	.LBE6:
 147:Core/Src/stm32f4xx_hal_msp.c ****     /**USART1 GPIO Configuration
 291              		.loc 1 147 5 view .LVU58
 152:Core/Src/stm32f4xx_hal_msp.c ****     GPIO_InitStruct.Mode = GPIO_MODE_AF_PP;
 292              		.loc 1 152 5 view .LVU59
 152:Core/Src/stm32f4xx_hal_msp.c ****     GPIO_InitStruct.Mode = GPIO_MODE_AF_PP;
 293              		.loc 1 152 25 is_stmt 0 view .LVU60
 294 0052 4FF4C063 		mov	r3, #1536
 295 0056 0393     		str	r3, [sp, #12]
 153:Core/Src/stm32f4xx_hal_msp.c ****     GPIO_InitStruct.Pull = GPIO_NOPULL;
 296              		.loc 1 153 5 is_stmt 1 view .LVU61
 153:Core/Src/stm32f4xx_hal_msp.c ****     GPIO_InitStruct.Pull = GPIO_NOPULL;
 297              		.loc 1 153 26 is_stmt 0 view .LVU62
 298 0058 0223     		movs	r3, #2
 299 005a 0493     		str	r3, [sp, #16]
 154:Core/Src/stm32f4xx_hal_msp.c ****     GPIO_InitStruct.Speed = GPIO_SPEED_FREQ_VERY_HIGH;
 300              		.loc 1 154 5 is_stmt 1 view .LVU63
 155:Core/Src/stm32f4xx_hal_msp.c ****     GPIO_InitStruct.Alternate = GPIO_AF7_USART1;
 301              		.loc 1 155 5 view .LVU64
 155:Core/Src/stm32f4xx_hal_msp.c ****     GPIO_InitStruct.Alternate = GPIO_AF7_USART1;
 302              		.loc 1 155 27 is_stmt 0 view .LVU65
 303 005c 0323     		movs	r3, #3
 304 005e 0693     		str	r3, [sp, #24]
 156:Core/Src/stm32f4xx_hal_msp.c ****     HAL_GPIO_Init(GPIOA, &GPIO_InitStruct);
 305              		.loc 1 156 5 is_stmt 1 view .LVU66
 156:Core/Src/stm32f4xx_hal_msp.c ****     HAL_GPIO_Init(GPIOA, &GPIO_InitStruct);
 306              		.loc 1 156 31 is_stmt 0 view .LVU67
 307 0060 0723     		movs	r3, #7
 308 0062 0793     		str	r3, [sp, #28]
 157:Core/Src/stm32f4xx_hal_msp.c **** 
 309              		.loc 1 157 5 is_stmt 1 view .LVU68
 310 0064 03A9     		add	r1, sp, #12
 311 0066 0248     		ldr	r0, .L22
 312              	.LVL12:
 157:Core/Src/stm32f4xx_hal_msp.c **** 
 313              		.loc 1 157 5 is_stmt 0 view .LVU69
 314 0068 FFF7FEFF 		bl	HAL_GPIO_Init
 315              	.LVL13:
 316              		.loc 1 164 1 view .LVU70
 317 006c D7E7     		b	.L18
 318              	.L23:
 319 006e 00BF     		.align	2
 320              	.L22:
 321 0070 00000240 		.word	1073872896
 322              		.cfi_endproc
 323              	.LFE133:
 325              		.section	.text.HAL_UART_MspDeInit,"ax",%progbits
 326              		.align	1
 327              		.global	HAL_UART_MspDeInit
 328              		.syntax unified
 329              		.thumb
 330              		.thumb_func
ARM GAS  C:\Users\TRONG-~1\AppData\Local\Temp\ccetaCC4.s 			page 10


 331              		.fpu fpv4-sp-d16
 333              	HAL_UART_MspDeInit:
 334              	.LVL14:
 335              	.LFB134:
 165:Core/Src/stm32f4xx_hal_msp.c **** 
 166:Core/Src/stm32f4xx_hal_msp.c **** /**
 167:Core/Src/stm32f4xx_hal_msp.c **** * @brief UART MSP De-Initialization
 168:Core/Src/stm32f4xx_hal_msp.c **** * This function freeze the hardware resources used in this example
 169:Core/Src/stm32f4xx_hal_msp.c **** * @param huart: UART handle pointer
 170:Core/Src/stm32f4xx_hal_msp.c **** * @retval None
 171:Core/Src/stm32f4xx_hal_msp.c **** */
 172:Core/Src/stm32f4xx_hal_msp.c **** void HAL_UART_MspDeInit(UART_HandleTypeDef* huart)
 173:Core/Src/stm32f4xx_hal_msp.c **** {
 336              		.loc 1 173 1 is_stmt 1 view -0
 337              		.cfi_startproc
 338              		@ args = 0, pretend = 0, frame = 0
 339              		@ frame_needed = 0, uses_anonymous_args = 0
 340              		.loc 1 173 1 is_stmt 0 view .LVU72
 341 0000 08B5     		push	{r3, lr}
 342              	.LCFI10:
 343              		.cfi_def_cfa_offset 8
 344              		.cfi_offset 3, -8
 345              		.cfi_offset 14, -4
 174:Core/Src/stm32f4xx_hal_msp.c ****   if(huart->Instance==USART1)
 346              		.loc 1 174 3 is_stmt 1 view .LVU73
 347              		.loc 1 174 11 is_stmt 0 view .LVU74
 348 0002 0268     		ldr	r2, [r0]
 349              		.loc 1 174 5 view .LVU75
 350 0004 074B     		ldr	r3, .L28
 351 0006 9A42     		cmp	r2, r3
 352 0008 00D0     		beq	.L27
 353              	.LVL15:
 354              	.L24:
 175:Core/Src/stm32f4xx_hal_msp.c ****   {
 176:Core/Src/stm32f4xx_hal_msp.c ****   /* USER CODE BEGIN USART1_MspDeInit 0 */
 177:Core/Src/stm32f4xx_hal_msp.c **** 
 178:Core/Src/stm32f4xx_hal_msp.c ****   /* USER CODE END USART1_MspDeInit 0 */
 179:Core/Src/stm32f4xx_hal_msp.c ****     /* Peripheral clock disable */
 180:Core/Src/stm32f4xx_hal_msp.c ****     __HAL_RCC_USART1_CLK_DISABLE();
 181:Core/Src/stm32f4xx_hal_msp.c **** 
 182:Core/Src/stm32f4xx_hal_msp.c ****     /**USART1 GPIO Configuration
 183:Core/Src/stm32f4xx_hal_msp.c ****     PA9     ------> USART1_TX
 184:Core/Src/stm32f4xx_hal_msp.c ****     PA10     ------> USART1_RX
 185:Core/Src/stm32f4xx_hal_msp.c ****     */
 186:Core/Src/stm32f4xx_hal_msp.c ****     HAL_GPIO_DeInit(GPIOA, GPIO_PIN_9|GPIO_PIN_10);
 187:Core/Src/stm32f4xx_hal_msp.c **** 
 188:Core/Src/stm32f4xx_hal_msp.c ****   /* USER CODE BEGIN USART1_MspDeInit 1 */
 189:Core/Src/stm32f4xx_hal_msp.c **** 
 190:Core/Src/stm32f4xx_hal_msp.c ****   /* USER CODE END USART1_MspDeInit 1 */
 191:Core/Src/stm32f4xx_hal_msp.c ****   }
 192:Core/Src/stm32f4xx_hal_msp.c **** 
 193:Core/Src/stm32f4xx_hal_msp.c **** }
 355              		.loc 1 193 1 view .LVU76
 356 000a 08BD     		pop	{r3, pc}
 357              	.LVL16:
 358              	.L27:
 180:Core/Src/stm32f4xx_hal_msp.c **** 
ARM GAS  C:\Users\TRONG-~1\AppData\Local\Temp\ccetaCC4.s 			page 11


 359              		.loc 1 180 5 is_stmt 1 view .LVU77
 360 000c 064A     		ldr	r2, .L28+4
 361 000e 536C     		ldr	r3, [r2, #68]
 362 0010 23F01003 		bic	r3, r3, #16
 363 0014 5364     		str	r3, [r2, #68]
 186:Core/Src/stm32f4xx_hal_msp.c **** 
 364              		.loc 1 186 5 view .LVU78
 365 0016 4FF4C061 		mov	r1, #1536
 366 001a 0448     		ldr	r0, .L28+8
 367              	.LVL17:
 186:Core/Src/stm32f4xx_hal_msp.c **** 
 368              		.loc 1 186 5 is_stmt 0 view .LVU79
 369 001c FFF7FEFF 		bl	HAL_GPIO_DeInit
 370              	.LVL18:
 371              		.loc 1 193 1 view .LVU80
 372 0020 F3E7     		b	.L24
 373              	.L29:
 374 0022 00BF     		.align	2
 375              	.L28:
 376 0024 00100140 		.word	1073811456
 377 0028 00380240 		.word	1073887232
 378 002c 00000240 		.word	1073872896
 379              		.cfi_endproc
 380              	.LFE134:
 382              		.text
 383              	.Letext0:
 384              		.file 2 "c:\\program files (x86)\\gnu arm embedded toolchain\\10 2020-q4-major\\arm-none-eabi\\inc
 385              		.file 3 "c:\\program files (x86)\\gnu arm embedded toolchain\\10 2020-q4-major\\arm-none-eabi\\inc
 386              		.file 4 "Drivers/CMSIS/Device/ST/STM32F4xx/Include/stm32f429xx.h"
 387              		.file 5 "Drivers/STM32F4xx_HAL_Driver/Inc/stm32f4xx_hal_def.h"
 388              		.file 6 "Drivers/STM32F4xx_HAL_Driver/Inc/stm32f4xx_hal_gpio.h"
 389              		.file 7 "Drivers/STM32F4xx_HAL_Driver/Inc/stm32f4xx_hal_dma.h"
 390              		.file 8 "Drivers/STM32F4xx_HAL_Driver/Inc/stm32f4xx_hal_tim.h"
 391              		.file 9 "Drivers/STM32F4xx_HAL_Driver/Inc/stm32f4xx_hal_uart.h"
 392              		.file 10 "Drivers/STM32F4xx_HAL_Driver/Inc/stm32f4xx_hal_cortex.h"
ARM GAS  C:\Users\TRONG-~1\AppData\Local\Temp\ccetaCC4.s 			page 12

